; Function Attrs: mustprogress uwtable
define internal noundef nonnull ptr @_ZNK7testing8internal30ValuesInIteratorRangeGeneratorIN11opencv_test12_GLOBAL__N_110BorderTypeEE8Iterator7CurrentEv(ptr noundef nonnull align 8 captures(none) dereferenceable(32) %0) unnamed_addr #4 align 2 {
  %2 = getelementptr inbounds nuw i8, ptr %0, i64 24
  %.val = load ptr, ptr %2, align 8, !tbaa !742
  %3 = icmp eq ptr %.val, null
  br i1 %3, label %4, label %_ZN7testing8internal10scoped_ptrIKN11opencv_test12_GLOBAL__N_110BorderTypeEE5resetEPS5_.exit

4:                                                ; preds = %1
  %5 = tail call noalias noundef nonnull dereferenceable(4) ptr @_Znwm(i64 noundef 4) #31
  %6 = getelementptr inbounds nuw i8, ptr %0, i64 16
  %.val2 = load ptr, ptr %6, align 8, !tbaa !743
  %7 = load i32, ptr %.val2, align 4, !tbaa !89
  store i32 %7, ptr %5, align 4, !tbaa !89
  %8 = tail call noundef zeroext i1 @_ZN7testing8internal6IsTrueEb(i1 noundef zeroext true)
  br i1 %8, label %9, label %13

9:                                                ; preds = %4
  %10 = load ptr, ptr %2, align 8, !tbaa !742
  %11 = icmp eq ptr %10, null
  br i1 %11, label %13, label %12

12:                                               ; preds = %9
  tail call void @_ZdlPv(ptr noundef nonnull %10) #33
  br label %13

13:                                               ; preds = %12, %9, %4
  store ptr %5, ptr %2, align 8, !tbaa !742
  br label %_ZN7testing8internal10scoped_ptrIKN11opencv_test12_GLOBAL__N_110BorderTypeEE5resetEPS5_.exit

_ZN7testing8internal10scoped_ptrIKN11opencv_test12_GLOBAL__N_110BorderTypeEE5resetEPS5_.exit: ; preds = %13, %1
  %.val1 = phi ptr [ %5, %13 ], [ %.val, %1 ]
  ret ptr %.val1
}